; Function Attrs: mustprogress nounwind uwtable
define hidden void @_ZN13TemplateTable7dastoreEv() local_unnamed_addr #0 align 2 {
  %1 = alloca %class.Address, align 16
  tail call void @_ZN13TemplateTable10transitionE8TosStateS0_(i32 noundef 7, i32 noundef 9) #8
  %2 = load ptr, ptr @_ZN13TemplateTable5_masmE, align 8
  %3 = load i8, ptr @PrintInterpreter, align 1
  %4 = trunc i8 %3 to i1
  br i1 %4, label %5, label %_ZN12Disassembler4hookI25InterpreterMacroAssemblerEEPT_PKciS3_.exit

5:                                                ; preds = %0
  tail call void @_ZN12Disassembler5_hookEPKciP14MacroAssembler(ptr noundef nonnull @.str, i32 noundef 1115, ptr noundef %2) #8
  br label %_ZN12Disassembler4hookI25InterpreterMacroAssemblerEEPT_PKciS3_.exit

_ZN12Disassembler4hookI25InterpreterMacroAssemblerEEPT_PKciS3_.exit: ; preds = %0, %5
  tail call void @_ZN25InterpreterMacroAssembler5pop_iE8Register(ptr noundef nonnull align 8 dereferenceable(48) %2, i32 3) #8
  %6 = load ptr, ptr @_ZN13TemplateTable5_masmE, align 8
  %7 = load i8, ptr @PrintInterpreter, align 1
  %8 = trunc i8 %7 to i1
  br i1 %8, label %9, label %_ZN13TemplateTable11index_checkE8RegisterS0_.exit

9:                                                ; preds = %_ZN12Disassembler4hookI25InterpreterMacroAssemblerEEPT_PKciS3_.exit
  tail call void @_ZN12Disassembler5_hookEPKciP14MacroAssembler(ptr noundef nonnull @.str, i32 noundef 758, ptr noundef %6) #8
  br label %_ZN13TemplateTable11index_checkE8RegisterS0_.exit

_ZN13TemplateTable11index_checkE8RegisterS0_.exit: ; preds = %_ZN12Disassembler4hookI25InterpreterMacroAssemblerEEPT_PKciS3_.exit, %9
  tail call void @_ZN25InterpreterMacroAssembler7pop_ptrE8Register(ptr noundef nonnull align 8 dereferenceable(48) %6, i32 2) #8
  tail call void @_ZN13TemplateTable23index_check_without_popE8RegisterS0_(i32 2, i32 3)
  %10 = load ptr, ptr @_ZN13TemplateTable5_masmE, align 8
  %11 = load i8, ptr @PrintInterpreter, align 1
  %12 = trunc i8 %11 to i1
  br i1 %12, label %13, label %_ZN12Disassembler4hookI25InterpreterMacroAssemblerEEPT_PKciS3_.exit9

13:                                               ; preds = %_ZN13TemplateTable11index_checkE8RegisterS0_.exit
  tail call void @_ZN12Disassembler5_hookEPKciP14MacroAssembler(ptr noundef nonnull @.str, i32 noundef 1120, ptr noundef %10) #8
  br label %_ZN12Disassembler4hookI25InterpreterMacroAssemblerEEPT_PKciS3_.exit9

_ZN12Disassembler4hookI25InterpreterMacroAssemblerEEPT_PKciS3_.exit9: ; preds = %_ZN13TemplateTable11index_checkE8RegisterS0_.exit, %13
  %14 = load i8, ptr @UseCompressedClassPointers, align 1
  %15 = trunc i8 %14 to i1
  %narrow.i = select i1 %15, i32 16, i32 24
  store <4 x i32> <i32 2, i32 3, i32 -1, i32 3>, ptr %1, align 16
  %16 = getelementptr inbounds i8, ptr %1, i64 16
  store i32 %narrow.i, ptr %16, align 16
  %17 = getelementptr inbounds i8, ptr %1, i64 20
  store i8 0, ptr %17, align 4
  %18 = getelementptr inbounds i8, ptr %1, i64 24
  store ptr getelementptr inbounds inrange(-16, 72) (i8, ptr @_ZTV10Relocation, i64 16), ptr %18, align 8
  %19 = getelementptr inbounds i8, ptr %1, i64 32
  store ptr null, ptr %19, align 16
  %20 = getelementptr inbounds i8, ptr %1, i64 40
  store i32 0, ptr %20, align 8
  call void @_ZN14MacroAssembler15access_store_atE9BasicTypem7Address8RegisterS2_S2_S2_(ptr noundef nonnull align 8 dereferenceable(40) %10, i8 noundef zeroext 7, i64 noundef 2359296, ptr noundef nonnull %1, i32 -1, i32 -1, i32 -1, i32 -1) #8
  ret void
}